; Function Attrs: nounwind uwtable
define void @png_destroy_png_struct(ptr noalias noundef %0) local_unnamed_addr #0 {
  %2 = alloca %struct.png_struct_def, align 8
  %.not = icmp eq ptr %0, null
  br i1 %.not, label %7, label %3

3:                                                ; preds = %1
  call void @llvm.lifetime.start.p0(i64 1240, ptr nonnull %2) #12
  call void @llvm.memcpy.p0.p0.i64(ptr noundef nonnull align 8 dereferenceable(1240) %2, ptr noundef nonnull align 8 dereferenceable(1240) %0, i64 1240, i1 false), !tbaa.struct !3
  tail call void @llvm.memset.p0.i64(ptr noundef nonnull align 8 dereferenceable(1240) %0, i8 0, i64 1240, i1 false)
  %4 = getelementptr inbounds nuw i8, ptr %2, i64 1072
  %5 = load ptr, ptr %4, align 8, !tbaa !27, !alias.scope !34
  %.not.i = icmp eq ptr %5, null
  br i1 %.not.i, label %png_free_default.exit.i, label %6

6:                                                ; preds = %3
  call void %5(ptr noundef nonnull %2, ptr noundef nonnull %0) #12
  br label %png_free.exit

png_free_default.exit.i:                          ; preds = %3
  tail call void @free(ptr noundef nonnull %0) #12
  br label %png_free.exit

png_free.exit:                                    ; preds = %6, %png_free_default.exit.i
  call void @png_free_jmpbuf(ptr noundef nonnull %2) #12
  call void @llvm.lifetime.end.p0(i64 1240, ptr nonnull %2) #12
  br label %7

7:                                                ; preds = %png_free.exit, %1
  ret void
}